target datalayout = "e-m:e-p270:32:32-p271:32:32-p272:64:64-i64:64-i128:128-f80:128-n8:16:32:64-S128"
target triple = "x86_64-pc-linux-gnu"

@ikm25519 = internal constant [32 x i8] c"rh`\0D@?\CEC\15a\AE\F5\83\EE\16\13R|\FFe\\\13C\F2\98\12\E6g\06\DF24", align 16
@pub25519 = internal constant [32 x i8] c"7\FD\A3V{\DB\D6(\E8\86h\C3\C8\D7\E9}\1D\12S\B6\D4\EAmD\C1P\F7A\F1\BFD1", align 16
@ikmp521 = internal constant [66 x i8] c"\7F\06\AB\82\15\10_\C4j\CE\EB.=\C5\02\8BD6O\96\04&\EB\0D\8E@&\C2\F8\B5\D7\E7\A9\86h\8F\15\91\AB\F5\ABu<5z]o\04@AKN\D4\ED\E7\13\17w*\C9\8D\929\F7\09\04", align 16
@ikmp256 = internal constant [32 x i8] c"Bp\E5O\FD\08\D7\9DY(\02\0A\F4hm\8Fk}5\DB\E4p&_\1FZ\A2(\16\CE\86\0E", align 16
@pubp256 = internal constant [65 x i8] c"\04\A9'\19\C6\19]P\85\10OF\9A\8B\98\14\D5\83\8F\F7+`P\1E,Df\E5\E6{2Z\C9\856\D7\B6\1A\1A\F4\B7\8E[\7F\95\1C\09\00\BE\86<@<\E6\\\9B\FC\B98&W\22-\18\C4", align 16
@ikmiter = internal constant [32 x i8] c"\00\00\00\00\00\00\00\00\00\00\00\00\00\00\00\00\00\00\00\00\00\00\00\00\00\00\00\03\018\B5\EC", align 16
@pubiter = internal constant [65 x i8] c"\04}\0C\87\FF\D5\D1ET\A7Q\DF\A3\99&\A9\E3\0E|<ebOK_\B3\ADz\A4\DA\C2J\D8\F5\BE\D0\E8n\B8\84\1C\E4\89.\0F\C3\87\BB\DB\FE\16\0DX\9C\89-\D4\B1FJ\C3Q\C5o\B6", align 16

; Function Attrs: nounwind uwtable
define internal i32 @test_hpke_ikms() #0 {
  %1 = alloca i32, align 4
  %2 = alloca i32, align 4
  %3 = alloca i32, align 4
  call void @llvm.lifetime.start.p0(i64 4, ptr %2) #7
  store i32 1, ptr %2, align 4, !tbaa !4
  %4 = call i32 @test_hpke_one_ikm_gen(i16 noundef zeroext 32, ptr noundef @ikm25519, i64 noundef 32, ptr noundef @pub25519, i64 noundef 32)
  store i32 %4, ptr %2, align 4, !tbaa !4
  %5 = load i32, ptr %2, align 4, !tbaa !4
  %6 = icmp ne i32 %5, 1
  br i1 %6, label %7, label %9

7:                                                ; preds = %0
  %8 = load i32, ptr %2, align 4, !tbaa !4
  store i32 %8, ptr %1, align 4
  store i32 1, ptr %3, align 4
  br label %29

9:                                                ; preds = %0
  %10 = call i32 @test_hpke_one_ikm_gen(i16 noundef zeroext 18, ptr noundef @ikmp521, i64 noundef 66, ptr noundef @pubp521, i64 noundef 133)
  store i32 %10, ptr %2, align 4, !tbaa !4
  %11 = load i32, ptr %2, align 4, !tbaa !4
  %12 = icmp ne i32 %11, 1
  br i1 %12, label %13, label %15

13:                                               ; preds = %9
  %14 = load i32, ptr %2, align 4, !tbaa !4
  store i32 %14, ptr %1, align 4
  store i32 1, ptr %3, align 4
  br label %29

15:                                               ; preds = %9
  %16 = call i32 @test_hpke_one_ikm_gen(i16 noundef zeroext 16, ptr noundef @ikmp256, i64 noundef 32, ptr noundef @pubp256, i64 noundef 65)
  store i32 %16, ptr %2, align 4, !tbaa !4
  %17 = load i32, ptr %2, align 4, !tbaa !4
  %18 = icmp ne i32 %17, 1
  br i1 %18, label %19, label %21

19:                                               ; preds = %15
  %20 = load i32, ptr %2, align 4, !tbaa !4
  store i32 %20, ptr %1, align 4
  store i32 1, ptr %3, align 4
  br label %29

21:                                               ; preds = %15
  %22 = call i32 @test_hpke_one_ikm_gen(i16 noundef zeroext 16, ptr noundef @ikmiter, i64 noundef 32, ptr noundef @pubiter, i64 noundef 65)
  store i32 %22, ptr %2, align 4, !tbaa !4
  %23 = load i32, ptr %2, align 4, !tbaa !4
  %24 = icmp ne i32 %23, 1
  br i1 %24, label %25, label %27

25:                                               ; preds = %21
  %26 = load i32, ptr %2, align 4, !tbaa !4
  store i32 %26, ptr %1, align 4
  store i32 1, ptr %3, align 4
  br label %29

27:                                               ; preds = %21
  %28 = load i32, ptr %2, align 4, !tbaa !4
  store i32 %28, ptr %1, align 4
  store i32 1, ptr %3, align 4
  br label %29

29:                                               ; preds = %27, %25, %19, %13, %7
  call void @llvm.lifetime.end.p0(i64 4, ptr %2) #7
  %30 = load i32, ptr %1, align 4
  ret i32 %30
}