; Function Attrs: nounwind uwtable
define internal range(i32 0, 2) i32 @test_hpke_ikms() #1 {
  %1 = tail call fastcc i32 @test_hpke_one_ikm_gen(i16 noundef zeroext 32, ptr noundef nonnull @ikm25519, i64 noundef 32, ptr noundef nonnull @pub25519, i64 noundef 32)
  %.not.not = icmp eq i32 %1, 0
  br i1 %.not.not, label %8, label %2

2:                                                ; preds = %0
  %3 = tail call fastcc i32 @test_hpke_one_ikm_gen(i16 noundef zeroext 18, ptr noundef nonnull @ikmp521, i64 noundef 66, ptr noundef nonnull @pubp521, i64 noundef 133)
  %.not.not14 = icmp eq i32 %3, 0
  br i1 %.not.not14, label %8, label %4

4:                                                ; preds = %2
  %5 = tail call fastcc i32 @test_hpke_one_ikm_gen(i16 noundef zeroext 16, ptr noundef nonnull @ikmp256, i64 noundef 32, ptr noundef nonnull @pubp256, i64 noundef 65)
  %.not.not15 = icmp eq i32 %5, 0
  br i1 %.not.not15, label %8, label %6

6:                                                ; preds = %4
  %7 = tail call fastcc i32 @test_hpke_one_ikm_gen(i16 noundef zeroext 16, ptr noundef nonnull @ikmiter, i64 noundef 32, ptr noundef nonnull @pubiter, i64 noundef 65)
  br label %8

8:                                                ; preds = %6, %4, %2, %0
  %.0 = phi i32 [ 0, %0 ], [ 0, %2 ], [ 0, %4 ], [ %7, %6 ]
  ret i32 %.0
}